target datalayout = "e-m:e-p270:32:32-p271:32:32-p272:64:64-i64:64-i128:128-f80:128-n8:16:32:64-S128"
target triple = "x86_64-unknown-linux-gnu"

%"class.sat::drat" = type { ptr, %class.svector, ptr, %"class.sat::clause_allocator", ptr, ptr, %class.svector.5, %class.svector.7, %class.vector.9, %class.svector.10, i8, i8, i8, i8, i8, %"struct.sat::drat::stats" }
%class.svector = type { %class.vector }
%class.vector = type { ptr }
%"class.sat::clause_allocator" = type { %class.sat_allocator, %class.id_gen }
%class.sat_allocator = type { ptr, i64, %class.ptr_vector, ptr, [65 x %class.ptr_vector.1] }
%class.ptr_vector = type { %class.vector.0 }
%class.vector.0 = type { ptr }
%class.ptr_vector.1 = type { %class.vector.2 }
%class.vector.2 = type { ptr }
%class.id_gen = type { i32, %class.svector.3 }
%class.svector.3 = type { %class.vector.4 }
%class.vector.4 = type { ptr }
%class.svector.5 = type { %class.vector.6 }
%class.vector.6 = type { ptr }
%class.svector.7 = type { %class.vector.8 }
%class.vector.8 = type { ptr }
%class.vector.9 = type { ptr }
%class.svector.10 = type { %class.vector.11 }
%class.vector.11 = type { ptr }
%"struct.sat::drat::stats" = type { i32, i32, i32, i32 }

@.str.17 = private unnamed_addr constant [9 x i8] c"num-drup\00", align 1
@.str.18 = private unnamed_addr constant [9 x i8] c"num-drat\00", align 1
@.str.19 = private unnamed_addr constant [8 x i8] c"num-add\00", align 1
@.str.20 = private unnamed_addr constant [8 x i8] c"num-del\00", align 1

; Function Attrs: mustprogress uwtable
define hidden void @_ZNK3sat4drat18collect_statisticsER10statistics(ptr noundef nonnull align 8 dereferenceable(664) %this, ptr noundef nonnull align 8 dereferenceable(16) %st) #5 align 2 {
entry:
  %this.addr = alloca ptr, align 8
  %st.addr = alloca ptr, align 8
  store ptr %this, ptr %this.addr, align 8
  store ptr %st, ptr %st.addr, align 8
  %this1 = load ptr, ptr %this.addr, align 8
  %0 = load ptr, ptr %st.addr, align 8
  %m_stats = getelementptr inbounds %"class.sat::drat", ptr %this1, i32 0, i32 15
  %m_num_drup = getelementptr inbounds %"struct.sat::drat::stats", ptr %m_stats, i32 0, i32 0
  %1 = load i32, ptr %m_num_drup, align 8
  call void @_ZN10statistics6updateEPKcj(ptr noundef nonnull align 8 dereferenceable(16) %0, ptr noundef @.str.17, i32 noundef %1)
  %2 = load ptr, ptr %st.addr, align 8
  %m_stats2 = getelementptr inbounds %"class.sat::drat", ptr %this1, i32 0, i32 15
  %m_num_drat = getelementptr inbounds %"struct.sat::drat::stats", ptr %m_stats2, i32 0, i32 1
  %3 = load i32, ptr %m_num_drat, align 4
  call void @_ZN10statistics6updateEPKcj(ptr noundef nonnull align 8 dereferenceable(16) %2, ptr noundef @.str.18, i32 noundef %3)
  %4 = load ptr, ptr %st.addr, align 8
  %m_stats3 = getelementptr inbounds %"class.sat::drat", ptr %this1, i32 0, i32 15
  %m_num_add = getelementptr inbounds %"struct.sat::drat::stats", ptr %m_stats3, i32 0, i32 2
  %5 = load i32, ptr %m_num_add, align 8
  call void @_ZN10statistics6updateEPKcj(ptr noundef nonnull align 8 dereferenceable(16) %4, ptr noundef @.str.19, i32 noundef %5)
  %6 = load ptr, ptr %st.addr, align 8
  %m_stats4 = getelementptr inbounds %"class.sat::drat", ptr %this1, i32 0, i32 15
  %m_num_del = getelementptr inbounds %"struct.sat::drat::stats", ptr %m_stats4, i32 0, i32 3
  %7 = load i32, ptr %m_num_del, align 4
  call void @_ZN10statistics6updateEPKcj(ptr noundef nonnull align 8 dereferenceable(16) %6, ptr noundef @.str.20, i32 noundef %7)
  ret void
}