; Function Attrs: mustprogress uwtable
define hidden void @_ZNK3sat4drat18collect_statisticsER10statistics(ptr nocapture noundef nonnull readonly align 8 dereferenceable(664) %this, ptr noundef nonnull align 8 dereferenceable(16) %st) local_unnamed_addr #3 align 2 {
entry:
  %m_stats = getelementptr inbounds i8, ptr %this, i64 648
  %0 = load i32, ptr %m_stats, align 8
  tail call void @_ZN10statistics6updateEPKcj(ptr noundef nonnull align 8 dereferenceable(16) %st, ptr noundef nonnull @.str.17, i32 noundef %0)
  %m_num_drat = getelementptr inbounds i8, ptr %this, i64 652
  %1 = load i32, ptr %m_num_drat, align 4
  tail call void @_ZN10statistics6updateEPKcj(ptr noundef nonnull align 8 dereferenceable(16) %st, ptr noundef nonnull @.str.18, i32 noundef %1)
  %m_num_add = getelementptr inbounds i8, ptr %this, i64 656
  %2 = load i32, ptr %m_num_add, align 8
  tail call void @_ZN10statistics6updateEPKcj(ptr noundef nonnull align 8 dereferenceable(16) %st, ptr noundef nonnull @.str.19, i32 noundef %2)
  %m_num_del = getelementptr inbounds i8, ptr %this, i64 660
  %3 = load i32, ptr %m_num_del, align 4
  tail call void @_ZN10statistics6updateEPKcj(ptr noundef nonnull align 8 dereferenceable(16) %st, ptr noundef nonnull @.str.20, i32 noundef %3)
  ret void
}